target datalayout = "e-m:e-p270:32:32-p271:32:32-p272:64:64-i64:64-i128:128-f80:128-n8:16:32:64-S128"
target triple = "x86_64-pc-linux-gnu"

%struct.H5HF_huge_bt2_ctx_t = type { i8, i8 }
%struct.H5HF_huge_bt2_filt_dir_rec_t = type { i64, i64, i32, i64 }

@H5HF_init_g = external global i8, align 1
@H5_libterm_g = external global i8, align 1

; Function Attrs: nounwind uwtable
define internal i32 @H5HF__huge_bt2_filt_dir_encode(ptr noundef %0, ptr noundef %1, ptr noundef %2) #0 {
  %4 = alloca ptr, align 8
  %5 = alloca ptr, align 8
  %6 = alloca ptr, align 8
  %7 = alloca ptr, align 8
  %8 = alloca ptr, align 8
  %9 = alloca i64, align 8
  %10 = alloca i64, align 8
  %11 = alloca ptr, align 8
  %12 = alloca i64, align 8
  %13 = alloca i64, align 8
  %14 = alloca ptr, align 8
  store ptr %0, ptr %4, align 8, !tbaa !27
  store ptr %1, ptr %5, align 8, !tbaa !3
  store ptr %2, ptr %6, align 8, !tbaa !3
  call void @llvm.lifetime.start.p0(i64 8, ptr %7) #6
  %15 = load ptr, ptr %6, align 8, !tbaa !3
  store ptr %15, ptr %7, align 8, !tbaa !13
  call void @llvm.lifetime.start.p0(i64 8, ptr %8) #6
  %16 = load ptr, ptr %5, align 8, !tbaa !3
  store ptr %16, ptr %8, align 8, !tbaa !71
  %17 = load i8, ptr @H5HF_init_g, align 1, !tbaa !9, !range !11, !noundef !12
  %18 = trunc i8 %17 to i1
  br i1 %18, label %23, label %19

19:                                               ; preds = %3
  %20 = load i8, ptr @H5_libterm_g, align 1, !tbaa !9, !range !11, !noundef !12
  %21 = trunc i8 %20 to i1
  %22 = xor i1 %21, true
  br label %23

23:                                               ; preds = %19, %3
  %24 = phi i1 [ true, %3 ], [ %22, %19 ]
  %25 = xor i1 %24, true
  %26 = xor i1 %25, true
  %27 = zext i1 %26 to i32
  %28 = sext i32 %27 to i64
  %29 = call i64 @llvm.expect.i64(i64 %28, i64 1)
  %30 = icmp ne i64 %29, 0
  br i1 %30, label %31, label %289

31:                                               ; preds = %23
  %32 = load ptr, ptr %7, align 8, !tbaa !13
  %33 = getelementptr inbounds nuw %struct.H5HF_huge_bt2_ctx_t, ptr %32, i32 0, i32 1
  %34 = load i8, ptr %33, align 1, !tbaa !17
  %35 = zext i8 %34 to i64
  %36 = load ptr, ptr %8, align 8, !tbaa !71
  %37 = getelementptr inbounds nuw %struct.H5HF_huge_bt2_filt_dir_rec_t, ptr %36, i32 0, i32 0
  %38 = load i64, ptr %37, align 8, !tbaa !73
  call void @H5F_addr_encode_len(i64 noundef %35, ptr noundef %4, i64 noundef %38)
  br label %39

39:                                               ; preds = %31
  %40 = load ptr, ptr %7, align 8, !tbaa !13
  %41 = getelementptr inbounds nuw %struct.H5HF_huge_bt2_ctx_t, ptr %40, i32 0, i32 0
  %42 = load i8, ptr %41, align 1, !tbaa !19
  %43 = zext i8 %42 to i32
  switch i32 %43, label %141 [
    i32 4, label %44
    i32 8, label %83
    i32 2, label %118
  ]

44:                                               ; preds = %39
  br label %45

45:                                               ; preds = %44
  %46 = load ptr, ptr %8, align 8, !tbaa !71
  %47 = getelementptr inbounds nuw %struct.H5HF_huge_bt2_filt_dir_rec_t, ptr %46, i32 0, i32 1
  %48 = load i64, ptr %47, align 8, !tbaa !75
  %49 = and i64 %48, 255
  %50 = trunc i64 %49 to i8
  %51 = load ptr, ptr %4, align 8, !tbaa !27
  store i8 %50, ptr %51, align 1, !tbaa !33
  %52 = load ptr, ptr %4, align 8, !tbaa !27
  %53 = getelementptr inbounds nuw i8, ptr %52, i32 1
  store ptr %53, ptr %4, align 8, !tbaa !27
  %54 = load ptr, ptr %8, align 8, !tbaa !71
  %55 = getelementptr inbounds nuw %struct.H5HF_huge_bt2_filt_dir_rec_t, ptr %54, i32 0, i32 1
  %56 = load i64, ptr %55, align 8, !tbaa !75
  %57 = lshr i64 %56, 8
  %58 = and i64 %57, 255
  %59 = trunc i64 %58 to i8
  %60 = load ptr, ptr %4, align 8, !tbaa !27
  store i8 %59, ptr %60, align 1, !tbaa !33
  %61 = load ptr, ptr %4, align 8, !tbaa !27
  %62 = getelementptr inbounds nuw i8, ptr %61, i32 1
  store ptr %62, ptr %4, align 8, !tbaa !27
  %63 = load ptr, ptr %8, align 8, !tbaa !71
  %64 = getelementptr inbounds nuw %struct.H5HF_huge_bt2_filt_dir_rec_t, ptr %63, i32 0, i32 1
  %65 = load i64, ptr %64, align 8, !tbaa !75
  %66 = lshr i64 %65, 16
  %67 = and i64 %66, 255
  %68 = trunc i64 %67 to i8
  %69 = load ptr, ptr %4, align 8, !tbaa !27
  store i8 %68, ptr %69, align 1, !tbaa !33
  %70 = load ptr, ptr %4, align 8, !tbaa !27
  %71 = getelementptr inbounds nuw i8, ptr %70, i32 1
  store ptr %71, ptr %4, align 8, !tbaa !27
  %72 = load ptr, ptr %8, align 8, !tbaa !71
  %73 = getelementptr inbounds nuw %struct.H5HF_huge_bt2_filt_dir_rec_t, ptr %72, i32 0, i32 1
  %74 = load i64, ptr %73, align 8, !tbaa !75
  %75 = lshr i64 %74, 24
  %76 = and i64 %75, 255
  %77 = trunc i64 %76 to i8
  %78 = load ptr, ptr %4, align 8, !tbaa !27
  store i8 %77, ptr %78, align 1, !tbaa !33
  %79 = load ptr, ptr %4, align 8, !tbaa !27
  %80 = getelementptr inbounds nuw i8, ptr %79, i32 1
  store ptr %80, ptr %4, align 8, !tbaa !27
  br label %81

81:                                               ; preds = %45
  br label %82

82:                                               ; preds = %81
  br label %142

83:                                               ; preds = %39
  br label %84

84:                                               ; preds = %83
  call void @llvm.lifetime.start.p0(i64 8, ptr %9) #6
  %85 = load ptr, ptr %8, align 8, !tbaa !71
  %86 = getelementptr inbounds nuw %struct.H5HF_huge_bt2_filt_dir_rec_t, ptr %85, i32 0, i32 1
  %87 = load i64, ptr %86, align 8, !tbaa !75
  store i64 %87, ptr %9, align 8, !tbaa !15
  call void @llvm.lifetime.start.p0(i64 8, ptr %10) #6
  call void @llvm.lifetime.start.p0(i64 8, ptr %11) #6
  %88 = load ptr, ptr %4, align 8, !tbaa !27
  store ptr %88, ptr %11, align 8, !tbaa !27
  store i64 0, ptr %10, align 8, !tbaa !15
  br label %89

89:                                               ; preds = %98, %84
  %90 = load i64, ptr %10, align 8, !tbaa !15
  %91 = icmp ult i64 %90, 8
  br i1 %91, label %92, label %103

92:                                               ; preds = %89
  %93 = load i64, ptr %9, align 8, !tbaa !15
  %94 = and i64 %93, 255
  %95 = trunc i64 %94 to i8
  %96 = load ptr, ptr %11, align 8, !tbaa !27
  %97 = getelementptr inbounds nuw i8, ptr %96, i32 1
  store ptr %97, ptr %11, align 8, !tbaa !27
  store i8 %95, ptr %96, align 1, !tbaa !33
  br label %98

98:                                               ; preds = %92
  %99 = load i64, ptr %10, align 8, !tbaa !15
  %100 = add i64 %99, 1
  store i64 %100, ptr %10, align 8, !tbaa !15
  %101 = load i64, ptr %9, align 8, !tbaa !15
  %102 = lshr i64 %101, 8
  store i64 %102, ptr %9, align 8, !tbaa !15
  br label %89, !llvm.loop !76

103:                                              ; preds = %89
  br label %104

104:                                              ; preds = %110, %103
  %105 = load i64, ptr %10, align 8, !tbaa !15
  %106 = icmp ult i64 %105, 8
  br i1 %106, label %107, label %113

107:                                              ; preds = %104
  %108 = load ptr, ptr %11, align 8, !tbaa !27
  %109 = getelementptr inbounds nuw i8, ptr %108, i32 1
  store ptr %109, ptr %11, align 8, !tbaa !27
  store i8 0, ptr %108, align 1, !tbaa !33
  br label %110

110:                                              ; preds = %107
  %111 = load i64, ptr %10, align 8, !tbaa !15
  %112 = add i64 %111, 1
  store i64 %112, ptr %10, align 8, !tbaa !15
  br label %104, !llvm.loop !77

113:                                              ; preds = %104
  %114 = load ptr, ptr %4, align 8, !tbaa !27
  %115 = getelementptr inbounds i8, ptr %114, i64 8
  store ptr %115, ptr %4, align 8, !tbaa !27
  call void @llvm.lifetime.end.p0(i64 8, ptr %11) #6
  call void @llvm.lifetime.end.p0(i64 8, ptr %10) #6
  call void @llvm.lifetime.end.p0(i64 8, ptr %9) #6
  br label %116

116:                                              ; preds = %113
  br label %117

117:                                              ; preds = %116
  br label %142

118:                                              ; preds = %39
  br label %119

119:                                              ; preds = %118
  %120 = load ptr, ptr %8, align 8, !tbaa !71
  %121 = getelementptr inbounds nuw %struct.H5HF_huge_bt2_filt_dir_rec_t, ptr %120, i32 0, i32 1
  %122 = load i64, ptr %121, align 8, !tbaa !75
  %123 = trunc i64 %122 to i32
  %124 = and i32 %123, 255
  %125 = trunc i32 %124 to i8
  %126 = load ptr, ptr %4, align 8, !tbaa !27
  store i8 %125, ptr %126, align 1, !tbaa !33
  %127 = load ptr, ptr %4, align 8, !tbaa !27
  %128 = getelementptr inbounds nuw i8, ptr %127, i32 1
  store ptr %128, ptr %4, align 8, !tbaa !27
  %129 = load ptr, ptr %8, align 8, !tbaa !71
  %130 = getelementptr inbounds nuw %struct.H5HF_huge_bt2_filt_dir_rec_t, ptr %129, i32 0, i32 1
  %131 = load i64, ptr %130, align 8, !tbaa !75
  %132 = trunc i64 %131 to i32
  %133 = lshr i32 %132, 8
  %134 = and i32 %133, 255
  %135 = trunc i32 %134 to i8
  %136 = load ptr, ptr %4, align 8, !tbaa !27
  store i8 %135, ptr %136, align 1, !tbaa !33
  %137 = load ptr, ptr %4, align 8, !tbaa !27
  %138 = getelementptr inbounds nuw i8, ptr %137, i32 1
  store ptr %138, ptr %4, align 8, !tbaa !27
  br label %139

139:                                              ; preds = %119
  br label %140

140:                                              ; preds = %139
  br label %142

141:                                              ; preds = %39
  br label %142

142:                                              ; preds = %141, %140, %117, %82
  br label %143

143:                                              ; preds = %142
  br label %144

144:                                              ; preds = %143
  br label %145

145:                                              ; preds = %144
  %146 = load ptr, ptr %8, align 8, !tbaa !71
  %147 = getelementptr inbounds nuw %struct.H5HF_huge_bt2_filt_dir_rec_t, ptr %146, i32 0, i32 2
  %148 = load i32, ptr %147, align 8, !tbaa !78
  %149 = and i32 %148, 255
  %150 = trunc i32 %149 to i8
  %151 = load ptr, ptr %4, align 8, !tbaa !27
  store i8 %150, ptr %151, align 1, !tbaa !33
  %152 = load ptr, ptr %4, align 8, !tbaa !27
  %153 = getelementptr inbounds nuw i8, ptr %152, i32 1
  store ptr %153, ptr %4, align 8, !tbaa !27
  %154 = load ptr, ptr %8, align 8, !tbaa !71
  %155 = getelementptr inbounds nuw %struct.H5HF_huge_bt2_filt_dir_rec_t, ptr %154, i32 0, i32 2
  %156 = load i32, ptr %155, align 8, !tbaa !78
  %157 = lshr i32 %156, 8
  %158 = and i32 %157, 255
  %159 = trunc i32 %158 to i8
  %160 = load ptr, ptr %4, align 8, !tbaa !27
  store i8 %159, ptr %160, align 1, !tbaa !33
  %161 = load ptr, ptr %4, align 8, !tbaa !27
  %162 = getelementptr inbounds nuw i8, ptr %161, i32 1
  store ptr %162, ptr %4, align 8, !tbaa !27
  %163 = load ptr, ptr %8, align 8, !tbaa !71
  %164 = getelementptr inbounds nuw %struct.H5HF_huge_bt2_filt_dir_rec_t, ptr %163, i32 0, i32 2
  %165 = load i32, ptr %164, align 8, !tbaa !78
  %166 = lshr i32 %165, 16
  %167 = and i32 %166, 255
  %168 = trunc i32 %167 to i8
  %169 = load ptr, ptr %4, align 8, !tbaa !27
  store i8 %168, ptr %169, align 1, !tbaa !33
  %170 = load ptr, ptr %4, align 8, !tbaa !27
  %171 = getelementptr inbounds nuw i8, ptr %170, i32 1
  store ptr %171, ptr %4, align 8, !tbaa !27
  %172 = load ptr, ptr %8, align 8, !tbaa !71
  %173 = getelementptr inbounds nuw %struct.H5HF_huge_bt2_filt_dir_rec_t, ptr %172, i32 0, i32 2
  %174 = load i32, ptr %173, align 8, !tbaa !78
  %175 = lshr i32 %174, 24
  %176 = and i32 %175, 255
  %177 = trunc i32 %176 to i8
  %178 = load ptr, ptr %4, align 8, !tbaa !27
  store i8 %177, ptr %178, align 1, !tbaa !33
  %179 = load ptr, ptr %4, align 8, !tbaa !27
  %180 = getelementptr inbounds nuw i8, ptr %179, i32 1
  store ptr %180, ptr %4, align 8, !tbaa !27
  br label %181

181:                                              ; preds = %145
  br label %182

182:                                              ; preds = %181
  br label %183

183:                                              ; preds = %182
  %184 = load ptr, ptr %7, align 8, !tbaa !13
  %185 = getelementptr inbounds nuw %struct.H5HF_huge_bt2_ctx_t, ptr %184, i32 0, i32 0
  %186 = load i8, ptr %185, align 1, !tbaa !19
  %187 = zext i8 %186 to i32
  switch i32 %187, label %285 [
    i32 4, label %188
    i32 8, label %227
    i32 2, label %262
  ]

188:                                              ; preds = %183
  br label %189

189:                                              ; preds = %188
  %190 = load ptr, ptr %8, align 8, !tbaa !71
  %191 = getelementptr inbounds nuw %struct.H5HF_huge_bt2_filt_dir_rec_t, ptr %190, i32 0, i32 3
  %192 = load i64, ptr %191, align 8, !tbaa !79
  %193 = and i64 %192, 255
  %194 = trunc i64 %193 to i8
  %195 = load ptr, ptr %4, align 8, !tbaa !27
  store i8 %194, ptr %195, align 1, !tbaa !33
  %196 = load ptr, ptr %4, align 8, !tbaa !27
  %197 = getelementptr inbounds nuw i8, ptr %196, i32 1
  store ptr %197, ptr %4, align 8, !tbaa !27
  %198 = load ptr, ptr %8, align 8, !tbaa !71
  %199 = getelementptr inbounds nuw %struct.H5HF_huge_bt2_filt_dir_rec_t, ptr %198, i32 0, i32 3
  %200 = load i64, ptr %199, align 8, !tbaa !79
  %201 = lshr i64 %200, 8
  %202 = and i64 %201, 255
  %203 = trunc i64 %202 to i8
  %204 = load ptr, ptr %4, align 8, !tbaa !27
  store i8 %203, ptr %204, align 1, !tbaa !33
  %205 = load ptr, ptr %4, align 8, !tbaa !27
  %206 = getelementptr inbounds nuw i8, ptr %205, i32 1
  store ptr %206, ptr %4, align 8, !tbaa !27
  %207 = load ptr, ptr %8, align 8, !tbaa !71
  %208 = getelementptr inbounds nuw %struct.H5HF_huge_bt2_filt_dir_rec_t, ptr %207, i32 0, i32 3
  %209 = load i64, ptr %208, align 8, !tbaa !79
  %210 = lshr i64 %209, 16
  %211 = and i64 %210, 255
  %212 = trunc i64 %211 to i8
  %213 = load ptr, ptr %4, align 8, !tbaa !27
  store i8 %212, ptr %213, align 1, !tbaa !33
  %214 = load ptr, ptr %4, align 8, !tbaa !27
  %215 = getelementptr inbounds nuw i8, ptr %214, i32 1
  store ptr %215, ptr %4, align 8, !tbaa !27
  %216 = load ptr, ptr %8, align 8, !tbaa !71
  %217 = getelementptr inbounds nuw %struct.H5HF_huge_bt2_filt_dir_rec_t, ptr %216, i32 0, i32 3
  %218 = load i64, ptr %217, align 8, !tbaa !79
  %219 = lshr i64 %218, 24
  %220 = and i64 %219, 255
  %221 = trunc i64 %220 to i8
  %222 = load ptr, ptr %4, align 8, !tbaa !27
  store i8 %221, ptr %222, align 1, !tbaa !33
  %223 = load ptr, ptr %4, align 8, !tbaa !27
  %224 = getelementptr inbounds nuw i8, ptr %223, i32 1
  store ptr %224, ptr %4, align 8, !tbaa !27
  br label %225

225:                                              ; preds = %189
  br label %226

226:                                              ; preds = %225
  br label %286

227:                                              ; preds = %183
  br label %228

228:                                              ; preds = %227
  call void @llvm.lifetime.start.p0(i64 8, ptr %12) #6
  %229 = load ptr, ptr %8, align 8, !tbaa !71
  %230 = getelementptr inbounds nuw %struct.H5HF_huge_bt2_filt_dir_rec_t, ptr %229, i32 0, i32 3
  %231 = load i64, ptr %230, align 8, !tbaa !79
  store i64 %231, ptr %12, align 8, !tbaa !15
  call void @llvm.lifetime.start.p0(i64 8, ptr %13) #6
  call void @llvm.lifetime.start.p0(i64 8, ptr %14) #6
  %232 = load ptr, ptr %4, align 8, !tbaa !27
  store ptr %232, ptr %14, align 8, !tbaa !27
  store i64 0, ptr %13, align 8, !tbaa !15
  br label %233

233:                                              ; preds = %242, %228
  %234 = load i64, ptr %13, align 8, !tbaa !15
  %235 = icmp ult i64 %234, 8
  br i1 %235, label %236, label %247

236:                                              ; preds = %233
  %237 = load i64, ptr %12, align 8, !tbaa !15
  %238 = and i64 %237, 255
  %239 = trunc i64 %238 to i8
  %240 = load ptr, ptr %14, align 8, !tbaa !27
  %241 = getelementptr inbounds nuw i8, ptr %240, i32 1
  store ptr %241, ptr %14, align 8, !tbaa !27
  store i8 %239, ptr %240, align 1, !tbaa !33
  br label %242

242:                                              ; preds = %236
  %243 = load i64, ptr %13, align 8, !tbaa !15
  %244 = add i64 %243, 1
  store i64 %244, ptr %13, align 8, !tbaa !15
  %245 = load i64, ptr %12, align 8, !tbaa !15
  %246 = lshr i64 %245, 8
  store i64 %246, ptr %12, align 8, !tbaa !15
  br label %233, !llvm.loop !80

247:                                              ; preds = %233
  br label %248

248:                                              ; preds = %254, %247
  %249 = load i64, ptr %13, align 8, !tbaa !15
  %250 = icmp ult i64 %249, 8
  br i1 %250, label %251, label %257

251:                                              ; preds = %248
  %252 = load ptr, ptr %14, align 8, !tbaa !27
  %253 = getelementptr inbounds nuw i8, ptr %252, i32 1
  store ptr %253, ptr %14, align 8, !tbaa !27
  store i8 0, ptr %252, align 1, !tbaa !33
  br label %254

254:                                              ; preds = %251
  %255 = load i64, ptr %13, align 8, !tbaa !15
  %256 = add i64 %255, 1
  store i64 %256, ptr %13, align 8, !tbaa !15
  br label %248, !llvm.loop !81

257:                                              ; preds = %248
  %258 = load ptr, ptr %4, align 8, !tbaa !27
  %259 = getelementptr inbounds i8, ptr %258, i64 8
  store ptr %259, ptr %4, align 8, !tbaa !27
  call void @llvm.lifetime.end.p0(i64 8, ptr %14) #6
  call void @llvm.lifetime.end.p0(i64 8, ptr %13) #6
  call void @llvm.lifetime.end.p0(i64 8, ptr %12) #6
  br label %260

260:                                              ; preds = %257
  br label %261

261:                                              ; preds = %260
  br label %286

262:                                              ; preds = %183
  br label %263

263:                                              ; preds = %262
  %264 = load ptr, ptr %8, align 8, !tbaa !71
  %265 = getelementptr inbounds nuw %struct.H5HF_huge_bt2_filt_dir_rec_t, ptr %264, i32 0, i32 3
  %266 = load i64, ptr %265, align 8, !tbaa !79
  %267 = trunc i64 %266 to i32
  %268 = and i32 %267, 255
  %269 = trunc i32 %268 to i8
  %270 = load ptr, ptr %4, align 8, !tbaa !27
  store i8 %269, ptr %270, align 1, !tbaa !33
  %271 = load ptr, ptr %4, align 8, !tbaa !27
  %272 = getelementptr inbounds nuw i8, ptr %271, i32 1
  store ptr %272, ptr %4, align 8, !tbaa !27
  %273 = load ptr, ptr %8, align 8, !tbaa !71
  %274 = getelementptr inbounds nuw %struct.H5HF_huge_bt2_filt_dir_rec_t, ptr %273, i32 0, i32 3
  %275 = load i64, ptr %274, align 8, !tbaa !79
  %276 = trunc i64 %275 to i32
  %277 = lshr i32 %276, 8
  %278 = and i32 %277, 255
  %279 = trunc i32 %278 to i8
  %280 = load ptr, ptr %4, align 8, !tbaa !27
  store i8 %279, ptr %280, align 1, !tbaa !33
  %281 = load ptr, ptr %4, align 8, !tbaa !27
  %282 = getelementptr inbounds nuw i8, ptr %281, i32 1
  store ptr %282, ptr %4, align 8, !tbaa !27
  br label %283

283:                                              ; preds = %263
  br label %284

284:                                              ; preds = %283
  br label %286

285:                                              ; preds = %183
  br label %286

286:                                              ; preds = %285, %284, %261, %226
  br label %287

287:                                              ; preds = %286
  br label %288

288:                                              ; preds = %287
  br label %289

289:                                              ; preds = %288, %23
  call void @llvm.lifetime.end.p0(i64 8, ptr %8) #6
  call void @llvm.lifetime.end.p0(i64 8, ptr %7) #6
  ret i32 0
}