; Function Attrs: nounwind uwtable
define internal noundef i32 @H5HF__huge_bt2_filt_dir_encode(ptr noundef %0, ptr noundef readonly captures(none) %1, ptr noundef readonly captures(none) %2) #0 {
  %4 = alloca ptr, align 8
  store ptr %0, ptr %4, align 8, !tbaa !20
  %5 = load i8, ptr @H5HF_init_g, align 1, !tbaa !3, !range !7, !noundef !8
  %6 = trunc nuw i8 %5 to i1
  %7 = load i8, ptr @H5_libterm_g, align 1, !range !7
  %8 = trunc nuw i8 %7 to i1
  %9 = xor i1 %8, true
  %10 = select i1 %6, i1 true, i1 %9
  br i1 %10, label %11, label %.loopexit, !prof !9

11:                                               ; preds = %3
  %12 = getelementptr inbounds nuw i8, ptr %2, i64 1
  %13 = load i8, ptr %12, align 1, !tbaa !12
  %14 = zext i8 %13 to i64
  %15 = load i64, ptr %1, align 8, !tbaa !51
  call void @H5F_addr_encode_len(i64 noundef %14, ptr noundef nonnull %4, i64 noundef %15) #6
  %16 = load i8, ptr %2, align 1, !tbaa !14
  switch i8 %16, label %._crit_edge [
    i8 4, label %17
    i8 8, label %39
    i8 2, label %51
  ]

._crit_edge:                                      ; preds = %11
  %.pre = load ptr, ptr %4, align 8, !tbaa !20
  br label %63

17:                                               ; preds = %11
  %18 = getelementptr inbounds nuw i8, ptr %1, i64 8
  %19 = load i64, ptr %18, align 8, !tbaa !53
  %20 = trunc i64 %19 to i8
  %21 = load ptr, ptr %4, align 8, !tbaa !20
  store i8 %20, ptr %21, align 1, !tbaa !25
  %22 = load ptr, ptr %4, align 8, !tbaa !20
  %23 = getelementptr inbounds nuw i8, ptr %22, i64 1
  store ptr %23, ptr %4, align 8, !tbaa !20
  %24 = load i64, ptr %18, align 8, !tbaa !53
  %25 = lshr i64 %24, 8
  %26 = trunc i64 %25 to i8
  store i8 %26, ptr %23, align 1, !tbaa !25
  %27 = load ptr, ptr %4, align 8, !tbaa !20
  %28 = getelementptr inbounds nuw i8, ptr %27, i64 1
  store ptr %28, ptr %4, align 8, !tbaa !20
  %29 = load i64, ptr %18, align 8, !tbaa !53
  %30 = lshr i64 %29, 16
  %31 = trunc i64 %30 to i8
  store i8 %31, ptr %28, align 1, !tbaa !25
  %32 = load ptr, ptr %4, align 8, !tbaa !20
  %33 = getelementptr inbounds nuw i8, ptr %32, i64 1
  store ptr %33, ptr %4, align 8, !tbaa !20
  %34 = load i64, ptr %18, align 8, !tbaa !53
  %35 = lshr i64 %34, 24
  %36 = trunc i64 %35 to i8
  store i8 %36, ptr %33, align 1, !tbaa !25
  %37 = load ptr, ptr %4, align 8, !tbaa !20
  %38 = getelementptr inbounds nuw i8, ptr %37, i64 1
  store ptr %38, ptr %4, align 8, !tbaa !20
  br label %63

39:                                               ; preds = %11
  %40 = getelementptr inbounds nuw i8, ptr %1, i64 8
  %41 = load i64, ptr %40, align 8, !tbaa !53
  %42 = load ptr, ptr %4, align 8, !tbaa !20
  br label %43

43:                                               ; preds = %39, %43
  %.04249 = phi ptr [ %42, %39 ], [ %45, %43 ]
  %.04448 = phi i64 [ 0, %39 ], [ %46, %43 ]
  %.04647 = phi i64 [ %41, %39 ], [ %47, %43 ]
  %44 = trunc i64 %.04647 to i8
  %45 = getelementptr inbounds nuw i8, ptr %.04249, i64 1
  store i8 %44, ptr %.04249, align 1, !tbaa !25
  %46 = add nuw nsw i64 %.04448, 1
  %47 = lshr i64 %.04647, 8
  %exitcond.not = icmp eq i64 %46, 8
  br i1 %exitcond.not, label %48, label %43, !llvm.loop !54

48:                                               ; preds = %43
  %49 = load ptr, ptr %4, align 8, !tbaa !20
  %50 = getelementptr inbounds nuw i8, ptr %49, i64 8
  store ptr %50, ptr %4, align 8, !tbaa !20
  br label %63

51:                                               ; preds = %11
  %52 = getelementptr inbounds nuw i8, ptr %1, i64 8
  %53 = load i64, ptr %52, align 8, !tbaa !53
  %54 = trunc i64 %53 to i8
  %55 = load ptr, ptr %4, align 8, !tbaa !20
  store i8 %54, ptr %55, align 1, !tbaa !25
  %56 = load ptr, ptr %4, align 8, !tbaa !20
  %57 = getelementptr inbounds nuw i8, ptr %56, i64 1
  store ptr %57, ptr %4, align 8, !tbaa !20
  %58 = load i64, ptr %52, align 8, !tbaa !53
  %59 = lshr i64 %58, 8
  %60 = trunc i64 %59 to i8
  store i8 %60, ptr %57, align 1, !tbaa !25
  %61 = load ptr, ptr %4, align 8, !tbaa !20
  %62 = getelementptr inbounds nuw i8, ptr %61, i64 1
  store ptr %62, ptr %4, align 8, !tbaa !20
  br label %63

63:                                               ; preds = %._crit_edge, %17, %48, %51
  %64 = phi ptr [ %.pre, %._crit_edge ], [ %38, %17 ], [ %50, %48 ], [ %62, %51 ]
  %65 = getelementptr inbounds nuw i8, ptr %1, i64 16
  %66 = load i32, ptr %65, align 8, !tbaa !55
  %67 = trunc i32 %66 to i8
  store i8 %67, ptr %64, align 1, !tbaa !25
  %68 = load ptr, ptr %4, align 8, !tbaa !20
  %69 = getelementptr inbounds nuw i8, ptr %68, i64 1
  store ptr %69, ptr %4, align 8, !tbaa !20
  %70 = load i32, ptr %65, align 8, !tbaa !55
  %71 = lshr i32 %70, 8
  %72 = trunc i32 %71 to i8
  store i8 %72, ptr %69, align 1, !tbaa !25
  %73 = load ptr, ptr %4, align 8, !tbaa !20
  %74 = getelementptr inbounds nuw i8, ptr %73, i64 1
  store ptr %74, ptr %4, align 8, !tbaa !20
  %75 = load i32, ptr %65, align 8, !tbaa !55
  %76 = lshr i32 %75, 16
  %77 = trunc i32 %76 to i8
  store i8 %77, ptr %74, align 1, !tbaa !25
  %78 = load ptr, ptr %4, align 8, !tbaa !20
  %79 = getelementptr inbounds nuw i8, ptr %78, i64 1
  store ptr %79, ptr %4, align 8, !tbaa !20
  %80 = load i32, ptr %65, align 8, !tbaa !55
  %81 = lshr i32 %80, 24
  %82 = trunc nuw i32 %81 to i8
  store i8 %82, ptr %79, align 1, !tbaa !25
  %83 = load ptr, ptr %4, align 8, !tbaa !20
  %84 = getelementptr inbounds nuw i8, ptr %83, i64 1
  store ptr %84, ptr %4, align 8, !tbaa !20
  %85 = load i8, ptr %2, align 1, !tbaa !14
  switch i8 %85, label %.loopexit [
    i8 4, label %86
    i8 8, label %105
    i8 2, label %113
  ]

86:                                               ; preds = %63
  %87 = getelementptr inbounds nuw i8, ptr %1, i64 24
  %88 = load i64, ptr %87, align 8, !tbaa !56
  %89 = trunc i64 %88 to i8
  store i8 %89, ptr %84, align 1, !tbaa !25
  %90 = load ptr, ptr %4, align 8, !tbaa !20
  %91 = getelementptr inbounds nuw i8, ptr %90, i64 1
  store ptr %91, ptr %4, align 8, !tbaa !20
  %92 = load i64, ptr %87, align 8, !tbaa !56
  %93 = lshr i64 %92, 8
  %94 = trunc i64 %93 to i8
  store i8 %94, ptr %91, align 1, !tbaa !25
  %95 = load ptr, ptr %4, align 8, !tbaa !20
  %96 = getelementptr inbounds nuw i8, ptr %95, i64 1
  store ptr %96, ptr %4, align 8, !tbaa !20
  %97 = load i64, ptr %87, align 8, !tbaa !56
  %98 = lshr i64 %97, 16
  %99 = trunc i64 %98 to i8
  store i8 %99, ptr %96, align 1, !tbaa !25
  %100 = load ptr, ptr %4, align 8, !tbaa !20
  %101 = getelementptr inbounds nuw i8, ptr %100, i64 1
  %102 = load i64, ptr %87, align 8, !tbaa !56
  %103 = lshr i64 %102, 24
  %104 = trunc i64 %103 to i8
  store i8 %104, ptr %101, align 1, !tbaa !25
  br label %.loopexit

105:                                              ; preds = %63
  %106 = getelementptr inbounds nuw i8, ptr %1, i64 24
  %107 = load i64, ptr %106, align 8, !tbaa !56
  br label %108

108:                                              ; preds = %105, %108
  %.052 = phi ptr [ %84, %105 ], [ %110, %108 ]
  %.03951 = phi i64 [ 0, %105 ], [ %111, %108 ]
  %.04150 = phi i64 [ %107, %105 ], [ %112, %108 ]
  %109 = trunc i64 %.04150 to i8
  %110 = getelementptr inbounds nuw i8, ptr %.052, i64 1
  store i8 %109, ptr %.052, align 1, !tbaa !25
  %111 = add nuw nsw i64 %.03951, 1
  %112 = lshr i64 %.04150, 8
  %exitcond53.not = icmp eq i64 %111, 8
  br i1 %exitcond53.not, label %.loopexit, label %108, !llvm.loop !57

113:                                              ; preds = %63
  %114 = getelementptr inbounds nuw i8, ptr %1, i64 24
  %115 = load i64, ptr %114, align 8, !tbaa !56
  %116 = trunc i64 %115 to i8
  store i8 %116, ptr %84, align 1, !tbaa !25
  %117 = load ptr, ptr %4, align 8, !tbaa !20
  %118 = getelementptr inbounds nuw i8, ptr %117, i64 1
  %119 = load i64, ptr %114, align 8, !tbaa !56
  %120 = lshr i64 %119, 8
  %121 = trunc i64 %120 to i8
  store i8 %121, ptr %118, align 1, !tbaa !25
  br label %.loopexit

.loopexit:                                        ; preds = %108, %86, %113, %63, %3
  ret i32 0
}